target datalayout = "e-m:e-p270:32:32-p271:32:32-p272:64:64-i64:64-i128:128-f80:128-n8:16:32:64-S128"
target triple = "x86_64-pc-linux-gnu"

%struct.jpeg_compress_struct = type { ptr, ptr, ptr, ptr, i32, i32, ptr, i32, i32, i32, i32, double, i32, i32, i32, ptr, [4 x ptr], [4 x ptr], [4 x ptr], [16 x i8], [16 x i8], [16 x i8], i32, ptr, i32, i32, i32, i32, i32, i32, i32, i32, i32, i8, i8, i8, i16, i16, i32, i32, i32, i32, i32, i32, i32, [4 x ptr], i32, i32, i32, [10 x i32], i32, i32, i32, i32, ptr, ptr, ptr, ptr, ptr, ptr, ptr, ptr, ptr, ptr, i32 }
%struct.jpeg_memory_mgr = type { ptr, ptr, ptr, ptr, ptr, ptr, ptr, ptr, ptr, ptr, ptr, i64, i64 }
%struct.gif_source_struct = type { %struct.cjpeg_source_struct, ptr, ptr, [260 x i8], i32, i32, i32, i32, i32, i32, i32, i32, i32, i32, i32, i32, i32, ptr, ptr, ptr, ptr, i32, ptr, i32, i32, i32, i32 }
%struct.cjpeg_source_struct = type { ptr, ptr, ptr, ptr, ptr, ptr, ptr, i32, i32 }
%struct.cdjpeg_progress_mgr = type { %struct.jpeg_progress_mgr, i32, i32, i32, i32, i32 }
%struct.jpeg_progress_mgr = type { ptr, i64, i64, i32, i32 }

; Function Attrs: nounwind uwtable
define internal i32 @load_interlaced_image(ptr noundef %0, ptr noundef %1) #0 {
  %3 = alloca ptr, align 8
  %4 = alloca ptr, align 8
  %5 = alloca ptr, align 8
  %6 = alloca ptr, align 8
  %7 = alloca i32, align 4
  %8 = alloca i32, align 4
  %9 = alloca ptr, align 8
  store ptr %0, ptr %3, align 8, !tbaa !4
  store ptr %1, ptr %4, align 8, !tbaa !49
  call void @llvm.lifetime.start.p0(i64 8, ptr %5) #3
  %10 = load ptr, ptr %4, align 8, !tbaa !49
  store ptr %10, ptr %5, align 8, !tbaa !37
  call void @llvm.lifetime.start.p0(i64 8, ptr %6) #3
  call void @llvm.lifetime.start.p0(i64 4, ptr %7) #3
  call void @llvm.lifetime.start.p0(i64 4, ptr %8) #3
  call void @llvm.lifetime.start.p0(i64 8, ptr %9) #3
  %11 = load ptr, ptr %3, align 8, !tbaa !4
  %12 = getelementptr inbounds nuw %struct.jpeg_compress_struct, ptr %11, i32 0, i32 2
  %13 = load ptr, ptr %12, align 8, !tbaa !67
  store ptr %13, ptr %9, align 8, !tbaa !68
  store i32 0, ptr %8, align 4, !tbaa !54
  br label %14

14:                                               ; preds = %70, %2
  %15 = load i32, ptr %8, align 4, !tbaa !54
  %16 = load ptr, ptr %3, align 8, !tbaa !4
  %17 = getelementptr inbounds nuw %struct.jpeg_compress_struct, ptr %16, i32 0, i32 8
  %18 = load i32, ptr %17, align 4, !tbaa !83
  %19 = icmp ult i32 %15, %18
  br i1 %19, label %20, label %73

20:                                               ; preds = %14
  %21 = load ptr, ptr %9, align 8, !tbaa !68
  %22 = icmp ne ptr %21, null
  br i1 %22, label %23, label %41

23:                                               ; preds = %20
  %24 = load i32, ptr %8, align 4, !tbaa !54
  %25 = zext i32 %24 to i64
  %26 = load ptr, ptr %9, align 8, !tbaa !68
  %27 = getelementptr inbounds nuw %struct.cdjpeg_progress_mgr, ptr %26, i32 0, i32 0
  %28 = getelementptr inbounds nuw %struct.jpeg_progress_mgr, ptr %27, i32 0, i32 1
  store i64 %25, ptr %28, align 8, !tbaa !93
  %29 = load ptr, ptr %3, align 8, !tbaa !4
  %30 = getelementptr inbounds nuw %struct.jpeg_compress_struct, ptr %29, i32 0, i32 8
  %31 = load i32, ptr %30, align 4, !tbaa !83
  %32 = zext i32 %31 to i64
  %33 = load ptr, ptr %9, align 8, !tbaa !68
  %34 = getelementptr inbounds nuw %struct.cdjpeg_progress_mgr, ptr %33, i32 0, i32 0
  %35 = getelementptr inbounds nuw %struct.jpeg_progress_mgr, ptr %34, i32 0, i32 2
  store i64 %32, ptr %35, align 8, !tbaa !94
  %36 = load ptr, ptr %9, align 8, !tbaa !68
  %37 = getelementptr inbounds nuw %struct.cdjpeg_progress_mgr, ptr %36, i32 0, i32 0
  %38 = getelementptr inbounds nuw %struct.jpeg_progress_mgr, ptr %37, i32 0, i32 0
  %39 = load ptr, ptr %38, align 8, !tbaa !95
  %40 = load ptr, ptr %3, align 8, !tbaa !4
  call void %39(ptr noundef %40)
  br label %41

41:                                               ; preds = %23, %20
  %42 = load ptr, ptr %3, align 8, !tbaa !4
  %43 = getelementptr inbounds nuw %struct.jpeg_compress_struct, ptr %42, i32 0, i32 1
  %44 = load ptr, ptr %43, align 8, !tbaa !34
  %45 = getelementptr inbounds nuw %struct.jpeg_memory_mgr, ptr %44, i32 0, i32 7
  %46 = load ptr, ptr %45, align 8, !tbaa !96
  %47 = load ptr, ptr %3, align 8, !tbaa !4
  %48 = load ptr, ptr %5, align 8, !tbaa !37
  %49 = getelementptr inbounds nuw %struct.gif_source_struct, ptr %48, i32 0, i32 22
  %50 = load ptr, ptr %49, align 8, !tbaa !66
  %51 = load i32, ptr %8, align 4, !tbaa !54
  %52 = call ptr %46(ptr noundef %47, ptr noundef %50, i32 noundef %51, i32 noundef 1, i32 noundef 1)
  %53 = load ptr, ptr %52, align 8, !tbaa !79
  store ptr %53, ptr %6, align 8, !tbaa !79
  %54 = load ptr, ptr %3, align 8, !tbaa !4
  %55 = getelementptr inbounds nuw %struct.jpeg_compress_struct, ptr %54, i32 0, i32 7
  %56 = load i32, ptr %55, align 8, !tbaa !82
  store i32 %56, ptr %7, align 4, !tbaa !54
  br label %57

57:                                               ; preds = %66, %41
  %58 = load i32, ptr %7, align 4, !tbaa !54
  %59 = icmp ugt i32 %58, 0
  br i1 %59, label %60, label %69

60:                                               ; preds = %57
  %61 = load ptr, ptr %5, align 8, !tbaa !37
  %62 = call i32 @LZWReadByte(ptr noundef %61)
  %63 = trunc i32 %62 to i8
  %64 = load ptr, ptr %6, align 8, !tbaa !79
  %65 = getelementptr inbounds nuw i8, ptr %64, i32 1
  store ptr %65, ptr %6, align 8, !tbaa !79
  store i8 %63, ptr %64, align 1, !tbaa !32
  br label %66

66:                                               ; preds = %60
  %67 = load i32, ptr %7, align 4, !tbaa !54
  %68 = add i32 %67, -1
  store i32 %68, ptr %7, align 4, !tbaa !54
  br label %57, !llvm.loop !97

69:                                               ; preds = %57
  br label %70

70:                                               ; preds = %69
  %71 = load i32, ptr %8, align 4, !tbaa !54
  %72 = add i32 %71, 1
  store i32 %72, ptr %8, align 4, !tbaa !54
  br label %14, !llvm.loop !98

73:                                               ; preds = %14
  %74 = load ptr, ptr %9, align 8, !tbaa !68
  %75 = icmp ne ptr %74, null
  br i1 %75, label %76, label %81

76:                                               ; preds = %73
  %77 = load ptr, ptr %9, align 8, !tbaa !68
  %78 = getelementptr inbounds nuw %struct.cdjpeg_progress_mgr, ptr %77, i32 0, i32 1
  %79 = load i32, ptr %78, align 8, !tbaa !99
  %80 = add nsw i32 %79, 1
  store i32 %80, ptr %78, align 8, !tbaa !99
  br label %81

81:                                               ; preds = %76, %73
  %82 = load ptr, ptr %5, align 8, !tbaa !37
  %83 = getelementptr inbounds nuw %struct.gif_source_struct, ptr %82, i32 0, i32 0
  %84 = getelementptr inbounds nuw %struct.cjpeg_source_struct, ptr %83, i32 0, i32 1
  store ptr @get_interlaced_row, ptr %84, align 8, !tbaa !73
  %85 = load ptr, ptr %5, align 8, !tbaa !37
  %86 = getelementptr inbounds nuw %struct.gif_source_struct, ptr %85, i32 0, i32 23
  store i32 0, ptr %86, align 8, !tbaa !100
  %87 = load ptr, ptr %3, align 8, !tbaa !4
  %88 = getelementptr inbounds nuw %struct.jpeg_compress_struct, ptr %87, i32 0, i32 8
  %89 = load i32, ptr %88, align 4, !tbaa !83
  %90 = add i32 %89, 7
  %91 = udiv i32 %90, 8
  %92 = load ptr, ptr %5, align 8, !tbaa !37
  %93 = getelementptr inbounds nuw %struct.gif_source_struct, ptr %92, i32 0, i32 24
  store i32 %91, ptr %93, align 4, !tbaa !101
  %94 = load ptr, ptr %5, align 8, !tbaa !37
  %95 = getelementptr inbounds nuw %struct.gif_source_struct, ptr %94, i32 0, i32 24
  %96 = load i32, ptr %95, align 4, !tbaa !101
  %97 = load ptr, ptr %3, align 8, !tbaa !4
  %98 = getelementptr inbounds nuw %struct.jpeg_compress_struct, ptr %97, i32 0, i32 8
  %99 = load i32, ptr %98, align 4, !tbaa !83
  %100 = add i32 %99, 3
  %101 = udiv i32 %100, 8
  %102 = add i32 %96, %101
  %103 = load ptr, ptr %5, align 8, !tbaa !37
  %104 = getelementptr inbounds nuw %struct.gif_source_struct, ptr %103, i32 0, i32 25
  store i32 %102, ptr %104, align 8, !tbaa !102
  %105 = load ptr, ptr %5, align 8, !tbaa !37
  %106 = getelementptr inbounds nuw %struct.gif_source_struct, ptr %105, i32 0, i32 25
  %107 = load i32, ptr %106, align 8, !tbaa !102
  %108 = load ptr, ptr %3, align 8, !tbaa !4
  %109 = getelementptr inbounds nuw %struct.jpeg_compress_struct, ptr %108, i32 0, i32 8
  %110 = load i32, ptr %109, align 4, !tbaa !83
  %111 = add i32 %110, 1
  %112 = udiv i32 %111, 4
  %113 = add i32 %107, %112
  %114 = load ptr, ptr %5, align 8, !tbaa !37
  %115 = getelementptr inbounds nuw %struct.gif_source_struct, ptr %114, i32 0, i32 26
  store i32 %113, ptr %115, align 4, !tbaa !103
  %116 = load ptr, ptr %3, align 8, !tbaa !4
  %117 = load ptr, ptr %4, align 8, !tbaa !49
  %118 = call i32 @get_interlaced_row(ptr noundef %116, ptr noundef %117)
  call void @llvm.lifetime.end.p0(i64 8, ptr %9) #3
  call void @llvm.lifetime.end.p0(i64 4, ptr %8) #3
  call void @llvm.lifetime.end.p0(i64 4, ptr %7) #3
  call void @llvm.lifetime.end.p0(i64 8, ptr %6) #3
  call void @llvm.lifetime.end.p0(i64 8, ptr %5) #3
  ret i32 %118
}