; Function Attrs: nounwind uwtable
define internal noundef i32 @load_interlaced_image(ptr noundef %0, ptr noundef captures(none) %1) #0 {
  %3 = getelementptr inbounds nuw i8, ptr %0, i64 16
  %4 = load ptr, ptr %3, align 8, !tbaa !74
  %5 = getelementptr inbounds nuw i8, ptr %0, i64 52
  %6 = load i32, ptr %5, align 4, !tbaa !86
  %.not46 = icmp eq i32 %6, 0
  br i1 %.not46, label %._crit_edge45, label %.lr.ph44

.lr.ph44:                                         ; preds = %2
  %.not37 = icmp eq ptr %4, null
  %7 = getelementptr inbounds nuw i8, ptr %4, i64 8
  %8 = getelementptr inbounds nuw i8, ptr %4, i64 16
  %9 = getelementptr inbounds nuw i8, ptr %0, i64 8
  %10 = getelementptr inbounds nuw i8, ptr %1, i64 432
  %11 = getelementptr inbounds nuw i8, ptr %0, i64 48
  br i1 %.not37, label %.lr.ph44.split.us, label %.lr.ph44.split

.lr.ph44.split.us:                                ; preds = %.lr.ph44, %._crit_edge.us
  %.03442.us = phi i32 [ %23, %._crit_edge.us ], [ 0, %.lr.ph44 ]
  %12 = load ptr, ptr %9, align 8, !tbaa !32
  %13 = getelementptr inbounds nuw i8, ptr %12, i64 56
  %14 = load ptr, ptr %13, align 8, !tbaa !88
  %15 = load ptr, ptr %10, align 8, !tbaa !73
  %16 = tail call ptr %14(ptr noundef nonnull %0, ptr noundef %15, i32 noundef %.03442.us, i32 noundef 1, i32 noundef 1) #4
  %17 = load i32, ptr %11, align 8, !tbaa !85
  %.not3839.us = icmp eq i32 %17, 0
  br i1 %.not3839.us, label %._crit_edge.us, label %.lr.ph.us.preheader

.lr.ph.us.preheader:                              ; preds = %.lr.ph44.split.us
  %18 = load ptr, ptr %16, align 8, !tbaa !83
  br label %.lr.ph.us

.lr.ph.us:                                        ; preds = %.lr.ph.us.preheader, %.lr.ph.us
  %.041.us = phi ptr [ %21, %.lr.ph.us ], [ %18, %.lr.ph.us.preheader ]
  %.03540.us = phi i32 [ %22, %.lr.ph.us ], [ %17, %.lr.ph.us.preheader ]
  %19 = tail call fastcc i32 @LZWReadByte(ptr noundef %1)
  %20 = trunc i32 %19 to i8
  %21 = getelementptr inbounds nuw i8, ptr %.041.us, i64 1
  store i8 %20, ptr %.041.us, align 1, !tbaa !30
  %22 = add i32 %.03540.us, -1
  %.not38.us = icmp eq i32 %22, 0
  br i1 %.not38.us, label %._crit_edge.us, label %.lr.ph.us, !llvm.loop !89

._crit_edge.us:                                   ; preds = %.lr.ph.us, %.lr.ph44.split.us
  %23 = add nuw i32 %.03442.us, 1
  %24 = load i32, ptr %5, align 4, !tbaa !86
  %25 = icmp ult i32 %23, %24
  br i1 %25, label %.lr.ph44.split.us, label %._crit_edge45, !llvm.loop !90

.lr.ph44.split:                                   ; preds = %.lr.ph44, %._crit_edge
  %indvars.iv = phi i64 [ %indvars.iv.next, %._crit_edge ], [ 0, %.lr.ph44 ]
  %26 = phi i32 [ %41, %._crit_edge ], [ %6, %.lr.ph44 ]
  store i64 %indvars.iv, ptr %7, align 8, !tbaa !91
  %27 = zext i32 %26 to i64
  store i64 %27, ptr %8, align 8, !tbaa !92
  %28 = load ptr, ptr %4, align 8, !tbaa !93
  tail call void %28(ptr noundef nonnull %0) #4
  %29 = load ptr, ptr %9, align 8, !tbaa !32
  %30 = getelementptr inbounds nuw i8, ptr %29, i64 56
  %31 = load ptr, ptr %30, align 8, !tbaa !88
  %32 = load ptr, ptr %10, align 8, !tbaa !73
  %33 = trunc nuw i64 %indvars.iv to i32
  %34 = tail call ptr %31(ptr noundef nonnull %0, ptr noundef %32, i32 noundef %33, i32 noundef 1, i32 noundef 1) #4
  %35 = load i32, ptr %11, align 8, !tbaa !85
  %.not3839 = icmp eq i32 %35, 0
  br i1 %.not3839, label %._crit_edge, label %.lr.ph.preheader

.lr.ph.preheader:                                 ; preds = %.lr.ph44.split
  %36 = load ptr, ptr %34, align 8, !tbaa !83
  br label %.lr.ph

.lr.ph:                                           ; preds = %.lr.ph.preheader, %.lr.ph
  %.041 = phi ptr [ %39, %.lr.ph ], [ %36, %.lr.ph.preheader ]
  %.03540 = phi i32 [ %40, %.lr.ph ], [ %35, %.lr.ph.preheader ]
  %37 = tail call fastcc i32 @LZWReadByte(ptr noundef %1)
  %38 = trunc i32 %37 to i8
  %39 = getelementptr inbounds nuw i8, ptr %.041, i64 1
  store i8 %38, ptr %.041, align 1, !tbaa !30
  %40 = add i32 %.03540, -1
  %.not38 = icmp eq i32 %40, 0
  br i1 %.not38, label %._crit_edge, label %.lr.ph, !llvm.loop !89

._crit_edge:                                      ; preds = %.lr.ph, %.lr.ph44.split
  %indvars.iv.next = add nuw nsw i64 %indvars.iv, 1
  %41 = load i32, ptr %5, align 4, !tbaa !86
  %42 = zext i32 %41 to i64
  %43 = icmp samesign ult i64 %indvars.iv.next, %42
  br i1 %43, label %.lr.ph44.split, label %._crit_edge45, !llvm.loop !90

._crit_edge45:                                    ; preds = %._crit_edge, %._crit_edge.us, %2
  %.lcssa = phi i32 [ 0, %2 ], [ %24, %._crit_edge.us ], [ %41, %._crit_edge ]
  %.not = icmp eq ptr %4, null
  br i1 %.not, label %48, label %44

44:                                               ; preds = %._crit_edge45
  %45 = getelementptr inbounds nuw i8, ptr %4, i64 32
  %46 = load i32, ptr %45, align 8, !tbaa !94
  %47 = add nsw i32 %46, 1
  store i32 %47, ptr %45, align 8, !tbaa !94
  br label %48

48:                                               ; preds = %44, %._crit_edge45
  %49 = getelementptr inbounds nuw i8, ptr %1, i64 8
  store ptr @get_interlaced_row, ptr %49, align 8, !tbaa !78
  %50 = getelementptr inbounds nuw i8, ptr %1, i64 440
  store i32 0, ptr %50, align 8, !tbaa !95
  %51 = add i32 %.lcssa, 7
  %52 = lshr i32 %51, 3
  %53 = getelementptr inbounds nuw i8, ptr %1, i64 444
  store i32 %52, ptr %53, align 4, !tbaa !96
  %54 = add i32 %.lcssa, 3
  %55 = lshr i32 %54, 3
  %56 = add nuw nsw i32 %52, %55
  %57 = getelementptr inbounds nuw i8, ptr %1, i64 448
  store i32 %56, ptr %57, align 8, !tbaa !97
  %58 = add i32 %.lcssa, 1
  %59 = lshr i32 %58, 2
  %60 = add nuw nsw i32 %56, %59
  %61 = getelementptr inbounds nuw i8, ptr %1, i64 452
  store i32 %60, ptr %61, align 4, !tbaa !98
  %62 = tail call i32 @get_interlaced_row(ptr noundef nonnull %0, ptr noundef %1)
  ret i32 1
}